; Function Attrs: nounwind sspstrong uwtable
define dso_local void @aio_bh_schedule_oneshot_full(ptr noundef %ctx, ptr noundef %cb, ptr noundef %opaque, ptr noundef %name) local_unnamed_addr #0 {
entry:
  %call = tail call noalias dereferenceable_or_null(56) ptr @g_malloc_n(i64 noundef 1, i64 noundef 56) #12
  store ptr %ctx, ptr %call, align 8
  %.compoundliteral.sroa.2.0..sroa_idx = getelementptr inbounds nuw i8, ptr %call, i64 8
  store ptr %name, ptr %.compoundliteral.sroa.2.0..sroa_idx, align 8
  %.compoundliteral.sroa.3.0..sroa_idx = getelementptr inbounds nuw i8, ptr %call, i64 16
  store ptr %cb, ptr %.compoundliteral.sroa.3.0..sroa_idx, align 8
  %.compoundliteral.sroa.4.0..sroa_idx = getelementptr inbounds nuw i8, ptr %call, i64 24
  store ptr %opaque, ptr %.compoundliteral.sroa.4.0..sroa_idx, align 8
  %.compoundliteral.sroa.5.0..sroa_idx = getelementptr inbounds nuw i8, ptr %call, i64 32
  store ptr null, ptr %.compoundliteral.sroa.5.0..sroa_idx, align 8
  %.compoundliteral.sroa.6.0..sroa_idx = getelementptr inbounds nuw i8, ptr %call, i64 40
  store i32 0, ptr %.compoundliteral.sroa.6.0..sroa_idx, align 8
  %.compoundliteral.sroa.71.0..sroa_idx = getelementptr inbounds nuw i8, ptr %call, i64 48
  store ptr null, ptr %.compoundliteral.sroa.71.0..sroa_idx, align 8
  %0 = atomicrmw or ptr %.compoundliteral.sroa.6.0..sroa_idx, i32 11 seq_cst, align 8
  %and.i = and i32 %0, 1
  %tobool.not.i = icmp eq i32 %and.i, 0
  br i1 %tobool.not.i, label %do.body2.preheader.i, label %if.end.i

do.body2.preheader.i:                             ; preds = %entry
  %bh_list.i = getelementptr inbounds nuw i8, ptr %ctx, i64 176
  %1 = ptrtoint ptr %call to i64
  br label %do.body2.i

do.body2.i:                                       ; preds = %do.body2.i, %do.body2.preheader.i
  %2 = load ptr, ptr %bh_list.i, align 8
  store ptr %2, ptr %.compoundliteral.sroa.5.0..sroa_idx, align 8
  %3 = ptrtoint ptr %2 to i64
  %4 = cmpxchg ptr %bh_list.i, i64 %3, i64 %1 seq_cst seq_cst, align 8
  %5 = extractvalue { i64, i1 } %4, 1
  %6 = extractvalue { i64, i1 } %4, 0
  %7 = inttoptr i64 %6 to ptr
  %cmp.not7.i = icmp eq ptr %2, %7
  %cmp.not.i = select i1 %5, i1 true, i1 %cmp.not7.i
  br i1 %cmp.not.i, label %if.end.i, label %do.body2.i, !llvm.loop !5

if.end.i:                                         ; preds = %do.body2.i, %entry
  tail call void asm sideeffect "", "~{memory},~{dirflag},~{fpsr},~{flags}"() #13, !srcloc !7
  fence release
  %notified.i.i = getelementptr inbounds nuw i8, ptr %ctx, i64 200
  store atomic i8 1, ptr %notified.i.i monotonic, align 8
  tail call void asm sideeffect "", "~{memory},~{dirflag},~{fpsr},~{flags}"() #13, !srcloc !8
  fence seq_cst
  %notify_me.i.i = getelementptr inbounds nuw i8, ptr %ctx, i64 168
  %8 = load atomic i32, ptr %notify_me.i.i monotonic, align 8
  %tobool.not.i.i = icmp eq i32 %8, 0
  br i1 %tobool.not.i.i, label %aio_bh_enqueue.exit, label %if.then.i.i

if.then.i.i:                                      ; preds = %if.end.i
  %notifier.i.i = getelementptr inbounds nuw i8, ptr %ctx, i64 204
  %call.i.i = tail call i32 @event_notifier_set(ptr noundef nonnull %notifier.i.i) #13
  br label %aio_bh_enqueue.exit

aio_bh_enqueue.exit:                              ; preds = %if.end.i, %if.then.i.i
  tail call void @icount_notify_exit() #13
  ret void
}